target datalayout = "e-m:e-p270:32:32-p271:32:32-p272:64:64-i64:64-i128:128-f80:128-n8:16:32:64-S128"
target triple = "x86_64-pc-linux-gnu"

%struct.ref_sorting = type { ptr, i32, i32 }

; Function Attrs: nounwind uwtable
define dso_local void @ref_sorting_set_sort_flags_all(ptr noundef %0, i32 noundef %1, i32 noundef %2) #0 {
  %4 = alloca ptr, align 8
  %5 = alloca i32, align 4
  %6 = alloca i32, align 4
  store ptr %0, ptr %4, align 8, !tbaa !134
  store i32 %1, ptr %5, align 4, !tbaa !15
  store i32 %2, ptr %6, align 4, !tbaa !15
  br label %7

7:                                                ; preds = %27, %3
  %8 = load ptr, ptr %4, align 8, !tbaa !134
  %9 = icmp ne ptr %8, null
  br i1 %9, label %10, label %31

10:                                               ; preds = %7
  %11 = load i32, ptr %6, align 4, !tbaa !15
  %12 = icmp ne i32 %11, 0
  br i1 %12, label %13, label %19

13:                                               ; preds = %10
  %14 = load i32, ptr %5, align 4, !tbaa !15
  %15 = load ptr, ptr %4, align 8, !tbaa !134
  %16 = getelementptr inbounds nuw %struct.ref_sorting, ptr %15, i32 0, i32 2
  %17 = load i32, ptr %16, align 4, !tbaa !142
  %18 = or i32 %17, %14
  store i32 %18, ptr %16, align 4, !tbaa !142
  br label %26

19:                                               ; preds = %10
  %20 = load i32, ptr %5, align 4, !tbaa !15
  %21 = xor i32 %20, -1
  %22 = load ptr, ptr %4, align 8, !tbaa !134
  %23 = getelementptr inbounds nuw %struct.ref_sorting, ptr %22, i32 0, i32 2
  %24 = load i32, ptr %23, align 4, !tbaa !142
  %25 = and i32 %24, %21
  store i32 %25, ptr %23, align 4, !tbaa !142
  br label %26

26:                                               ; preds = %19, %13
  br label %27

27:                                               ; preds = %26
  %28 = load ptr, ptr %4, align 8, !tbaa !134
  %29 = getelementptr inbounds nuw %struct.ref_sorting, ptr %28, i32 0, i32 0
  %30 = load ptr, ptr %29, align 8, !tbaa !140
  store ptr %30, ptr %4, align 8, !tbaa !134
  br label %7, !llvm.loop !156

31:                                               ; preds = %7
  ret void
}