; Function Attrs: nofree norecurse nosync nounwind memory(readwrite, inaccessiblemem: none) uwtable
define dso_local void @ref_sorting_set_sort_flags_all(ptr noundef %0, i32 noundef %1, i32 noundef %2) local_unnamed_addr #9 {
  %.not7 = icmp eq ptr %0, null
  br i1 %.not7, label %._crit_edge, label %.lr.ph

.lr.ph:                                           ; preds = %3
  %.not6 = icmp eq i32 %2, 0
  %4 = xor i32 %1, -1
  br i1 %.not6, label %.lr.ph.split.us, label %.lr.ph.split

.lr.ph.split.us:                                  ; preds = %.lr.ph, %.lr.ph.split.us
  %.08.us = phi ptr [ %8, %.lr.ph.split.us ], [ %0, %.lr.ph ]
  %5 = getelementptr inbounds nuw i8, ptr %.08.us, i64 12
  %6 = load i32, ptr %5, align 4, !tbaa !127
  %7 = and i32 %6, %4
  store i32 %7, ptr %5, align 4, !tbaa !127
  %8 = load ptr, ptr %.08.us, align 8, !tbaa !124
  %.not.us = icmp eq ptr %8, null
  br i1 %.not.us, label %._crit_edge, label %.lr.ph.split.us, !llvm.loop !144

.lr.ph.split:                                     ; preds = %.lr.ph, %.lr.ph.split
  %.08 = phi ptr [ %12, %.lr.ph.split ], [ %0, %.lr.ph ]
  %9 = getelementptr inbounds nuw i8, ptr %.08, i64 12
  %10 = load i32, ptr %9, align 4, !tbaa !127
  %11 = or i32 %10, %1
  store i32 %11, ptr %9, align 4, !tbaa !127
  %12 = load ptr, ptr %.08, align 8, !tbaa !124
  %.not = icmp eq ptr %12, null
  br i1 %.not, label %._crit_edge, label %.lr.ph.split, !llvm.loop !144

._crit_edge:                                      ; preds = %.lr.ph.split, %.lr.ph.split.us, %3
  ret void
}